target datalayout = "e-m:e-p270:32:32-p271:32:32-p272:64:64-i64:64-i128:128-f80:128-n8:16:32:64-S128"
target triple = "x86_64-pc-linux-gnu"

%struct.mbedtls_ssl_context = type { ptr, i32, i32, i32, i32, i32, ptr, ptr, ptr, ptr, ptr, ptr, ptr, ptr, ptr, ptr, ptr, ptr, ptr, ptr, ptr, ptr, ptr, ptr, ptr, ptr, ptr, ptr, ptr, ptr, ptr, ptr, ptr, i32, i64, i64, i16, i64, i64, i64, i64, i32, i32, i8, i8, i32, i8, ptr, ptr, ptr, ptr, ptr, ptr, ptr, i32, i64, i64, [8 x i8], i16, ptr, ptr, ptr, i64, i32, i64, [12 x i8], [12 x i8], [32 x i8], i8, i8, ptr, ptr, %union.mbedtls_ssl_user_data_t }
%union.mbedtls_ssl_user_data_t = type { i64 }
%struct.mbedtls_ssl_handshake_params = type { i8, i8, i8, i8, i8, i32, i8, i8, i8, i8, ptr, ptr, ptr, ptr, ptr, i8, i8, i8, i8, i16, i16, [20 x i16], ptr, ptr, %struct.mbedtls_dhm_context, %struct.mbedtls_ecdh_context, i16, i64, i32, i8, [1024 x i8], i64, ptr, ptr, i64, i16, ptr, ptr, ptr, ptr, %struct.anon, ptr, i16, i8, i32, i32, i32, ptr, ptr, ptr, i32, ptr, [8 x i8], i8, [32 x i8], i8, i16, %struct.mbedtls_md_context_t, %struct.mbedtls_md_context_t, i16, i8, %union.anon.1, [64 x i8], [1076 x i8], i64, i32, i32, i8, ptr, ptr, %union.anon.4, %struct.mbedtls_ssl_tls13_handshake_secrets, ptr, i64, ptr }
%struct.mbedtls_dhm_context = type { %struct.mbedtls_mpi, %struct.mbedtls_mpi, %struct.mbedtls_mpi, %struct.mbedtls_mpi, %struct.mbedtls_mpi, %struct.mbedtls_mpi, %struct.mbedtls_mpi, %struct.mbedtls_mpi, %struct.mbedtls_mpi, %struct.mbedtls_mpi }
%struct.mbedtls_mpi = type { ptr, i16, i16 }
%struct.mbedtls_ecdh_context = type { i8, i32, i32, %union.anon }
%union.anon = type { %struct.mbedtls_ecdh_context_mbed }
%struct.mbedtls_ecdh_context_mbed = type { %struct.mbedtls_ecp_group, %struct.mbedtls_mpi, %struct.mbedtls_ecp_point, %struct.mbedtls_ecp_point, %struct.mbedtls_mpi }
%struct.mbedtls_ecp_group = type { i32, %struct.mbedtls_mpi, %struct.mbedtls_mpi, %struct.mbedtls_mpi, %struct.mbedtls_ecp_point, %struct.mbedtls_mpi, i64, i64, i32, ptr, ptr, ptr, ptr, ptr, i64 }
%struct.mbedtls_ecp_point = type { %struct.mbedtls_mpi, %struct.mbedtls_mpi, %struct.mbedtls_mpi }
%struct.anon = type { i64, i8, [4 x %struct.mbedtls_ssl_hs_buffer], %struct.anon.0 }
%struct.mbedtls_ssl_hs_buffer = type { i8, ptr, i64 }
%struct.anon.0 = type { ptr, i64, i32 }
%struct.mbedtls_md_context_t = type { ptr, ptr, ptr }
%union.anon.1 = type { %struct.anon.2 }
%struct.anon.2 = type { i8, [64 x i8], i64 }
%union.anon.4 = type { [64 x i8] }
%struct.mbedtls_ssl_tls13_handshake_secrets = type { [64 x i8], [64 x i8] }

@.str = private unnamed_addr constant [131 x i8] c"generated/home/dtcxzyw/WorkSpace/Projects/compilers/llvm-opt-benchmark/bench/lief/bench_build/mbed_src/library/ssl_tls13_generic.c\00", align 1
@.str.4 = private unnamed_addr constant [25 x i8] c"missing input data in %s\00", align 1
@__func__.mbedtls_ssl_tls13_read_public_xxdhe_share = private unnamed_addr constant [42 x i8] c"mbedtls_ssl_tls13_read_public_xxdhe_share\00", align 1
@.str.30 = private unnamed_addr constant [36 x i8] c"Invalid public key length: %u > %zu\00", align 1

; Function Attrs: alwaysinline nounwind uwtable
define internal zeroext i16 @mbedtls_get_unaligned_uint16(ptr noundef %0) #4 {
  %2 = alloca ptr, align 8
  %3 = alloca i16, align 2
  store ptr %0, ptr %2, align 8, !tbaa !31
  call void @llvm.lifetime.start.p0(i64 2, ptr %3) #10
  %4 = load ptr, ptr %2, align 8, !tbaa !31
  call void @llvm.memcpy.p0.p0.i64(ptr align 2 %3, ptr align 1 %4, i64 2, i1 false)
  %5 = load i16, ptr %3, align 2, !tbaa !32
  call void @llvm.lifetime.end.p0(i64 2, ptr %3) #10
  ret i16 %5
}

; Function Attrs: inlinehint nounwind uwtable
define internal i32 @mbedtls_ssl_chk_buf_ptr(ptr noundef %0, ptr noundef %1, i64 noundef %2) #3 {
  %4 = alloca ptr, align 8
  %5 = alloca ptr, align 8
  %6 = alloca i64, align 8
  store ptr %0, ptr %4, align 8, !tbaa !26
  store ptr %1, ptr %5, align 8, !tbaa !26
  store i64 %2, ptr %6, align 8, !tbaa !28
  %7 = load ptr, ptr %4, align 8, !tbaa !26
  %8 = load ptr, ptr %5, align 8, !tbaa !26
  %9 = icmp ugt ptr %7, %8
  br i1 %9, label %18, label %10

10:                                               ; preds = %3
  %11 = load i64, ptr %6, align 8, !tbaa !28
  %12 = load ptr, ptr %5, align 8, !tbaa !26
  %13 = load ptr, ptr %4, align 8, !tbaa !26
  %14 = ptrtoint ptr %12 to i64
  %15 = ptrtoint ptr %13 to i64
  %16 = sub i64 %14, %15
  %17 = icmp ugt i64 %11, %16
  br label %18

18:                                               ; preds = %10, %3
  %19 = phi i1 [ true, %3 ], [ %17, %10 ]
  %20 = zext i1 %19 to i32
  ret i32 %20
}

; Function Attrs: nounwind uwtable
define hidden i32 @mbedtls_ssl_tls13_read_public_xxdhe_share(ptr noundef %0, ptr noundef %1, i64 noundef %2) #0 {
  %4 = alloca i32, align 4
  %5 = alloca ptr, align 8
  %6 = alloca ptr, align 8
  %7 = alloca i64, align 8
  %8 = alloca ptr, align 8
  %9 = alloca ptr, align 8
  %10 = alloca ptr, align 8
  %11 = alloca i32, align 4
  %12 = alloca i16, align 2
  store ptr %0, ptr %5, align 8, !tbaa !3
  store ptr %1, ptr %6, align 8, !tbaa !26
  store i64 %2, ptr %7, align 8, !tbaa !28
  call void @llvm.lifetime.start.p0(i64 8, ptr %8) #10
  %13 = load ptr, ptr %6, align 8, !tbaa !26
  store ptr %13, ptr %8, align 8, !tbaa !26
  call void @llvm.lifetime.start.p0(i64 8, ptr %9) #10
  %14 = load ptr, ptr %6, align 8, !tbaa !26
  %15 = load i64, ptr %7, align 8, !tbaa !28
  %16 = getelementptr inbounds nuw i8, ptr %14, i64 %15
  store ptr %16, ptr %9, align 8, !tbaa !26
  call void @llvm.lifetime.start.p0(i64 8, ptr %10) #10
  %17 = load ptr, ptr %5, align 8, !tbaa !3
  %18 = getelementptr inbounds nuw %struct.mbedtls_ssl_context, ptr %17, i32 0, i32 16
  %19 = load ptr, ptr %18, align 8, !tbaa !33
  store ptr %19, ptr %10, align 8, !tbaa !64
  br label %20

20:                                               ; preds = %3
  %21 = load ptr, ptr %8, align 8, !tbaa !26
  %22 = load ptr, ptr %9, align 8, !tbaa !26
  %23 = call i32 @mbedtls_ssl_chk_buf_ptr(ptr noundef %21, ptr noundef %22, i64 noundef 2)
  %24 = icmp ne i32 %23, 0
  br i1 %24, label %25, label %28

25:                                               ; preds = %20
  %26 = load ptr, ptr %5, align 8, !tbaa !3
  call void (ptr, i32, ptr, i32, ptr, ...) @mbedtls_debug_print_msg(ptr noundef %26, i32 noundef 1, ptr noundef @.str, i32 noundef 1474, ptr noundef @.str.4, ptr noundef @__func__.mbedtls_ssl_tls13_read_public_xxdhe_share)
  %27 = load ptr, ptr %5, align 8, !tbaa !3
  call void @mbedtls_ssl_pend_fatal_alert(ptr noundef %27, i8 noundef zeroext 50, i32 noundef -29440)
  store i32 -29440, ptr %4, align 4
  store i32 1, ptr %11, align 4
  br label %71

28:                                               ; preds = %20
  br label %29

29:                                               ; preds = %28
  br label %30

30:                                               ; preds = %29
  call void @llvm.lifetime.start.p0(i64 2, ptr %12) #10
  %31 = load ptr, ptr %8, align 8, !tbaa !26
  %32 = getelementptr inbounds i8, ptr %31, i64 0
  %33 = call zeroext i16 @mbedtls_get_unaligned_uint16(ptr noundef %32)
  %34 = call i16 @llvm.bswap.i16(i16 %33)
  %35 = zext i16 %34 to i32
  %36 = trunc i32 %35 to i16
  store i16 %36, ptr %12, align 2, !tbaa !32
  %37 = load ptr, ptr %8, align 8, !tbaa !26
  %38 = getelementptr inbounds i8, ptr %37, i64 2
  store ptr %38, ptr %8, align 8, !tbaa !26
  br label %39

39:                                               ; preds = %30
  %40 = load ptr, ptr %8, align 8, !tbaa !26
  %41 = load ptr, ptr %9, align 8, !tbaa !26
  %42 = load i16, ptr %12, align 2, !tbaa !32
  %43 = zext i16 %42 to i64
  %44 = call i32 @mbedtls_ssl_chk_buf_ptr(ptr noundef %40, ptr noundef %41, i64 noundef %43)
  %45 = icmp ne i32 %44, 0
  br i1 %45, label %46, label %49

46:                                               ; preds = %39
  %47 = load ptr, ptr %5, align 8, !tbaa !3
  call void (ptr, i32, ptr, i32, ptr, ...) @mbedtls_debug_print_msg(ptr noundef %47, i32 noundef 1, ptr noundef @.str, i32 noundef 1479, ptr noundef @.str.4, ptr noundef @__func__.mbedtls_ssl_tls13_read_public_xxdhe_share)
  %48 = load ptr, ptr %5, align 8, !tbaa !3
  call void @mbedtls_ssl_pend_fatal_alert(ptr noundef %48, i8 noundef zeroext 50, i32 noundef -29440)
  store i32 -29440, ptr %4, align 4
  store i32 1, ptr %11, align 4
  br label %70

49:                                               ; preds = %39
  br label %50

50:                                               ; preds = %49
  br label %51

51:                                               ; preds = %50
  %52 = load i16, ptr %12, align 2, !tbaa !32
  %53 = zext i16 %52 to i64
  %54 = icmp ugt i64 %53, 1024
  br i1 %54, label %55, label %59

55:                                               ; preds = %51
  %56 = load ptr, ptr %5, align 8, !tbaa !3
  %57 = load i16, ptr %12, align 2, !tbaa !32
  %58 = zext i16 %57 to i32
  call void (ptr, i32, ptr, i32, ptr, ...) @mbedtls_debug_print_msg(ptr noundef %56, i32 noundef 1, ptr noundef @.str, i32 noundef 1485, ptr noundef @.str.30, i32 noundef %58, i64 noundef 1024)
  store i32 -28160, ptr %4, align 4
  store i32 1, ptr %11, align 4
  br label %70

59:                                               ; preds = %51
  %60 = load ptr, ptr %10, align 8, !tbaa !64
  %61 = getelementptr inbounds nuw %struct.mbedtls_ssl_handshake_params, ptr %60, i32 0, i32 30
  %62 = getelementptr inbounds [1024 x i8], ptr %61, i64 0, i64 0
  %63 = load ptr, ptr %8, align 8, !tbaa !26
  %64 = load i16, ptr %12, align 2, !tbaa !32
  %65 = zext i16 %64 to i64
  call void @llvm.memcpy.p0.p0.i64(ptr align 1 %62, ptr align 1 %63, i64 %65, i1 false)
  %66 = load i16, ptr %12, align 2, !tbaa !32
  %67 = zext i16 %66 to i64
  %68 = load ptr, ptr %10, align 8, !tbaa !64
  %69 = getelementptr inbounds nuw %struct.mbedtls_ssl_handshake_params, ptr %68, i32 0, i32 31
  store i64 %67, ptr %69, align 8, !tbaa !102
  store i32 0, ptr %4, align 4
  store i32 1, ptr %11, align 4
  br label %70

70:                                               ; preds = %59, %55, %46
  call void @llvm.lifetime.end.p0(i64 2, ptr %12) #10
  br label %71

71:                                               ; preds = %70, %25
  call void @llvm.lifetime.end.p0(i64 8, ptr %10) #10
  call void @llvm.lifetime.end.p0(i64 8, ptr %9) #10
  call void @llvm.lifetime.end.p0(i64 8, ptr %8) #10
  %72 = load i32, ptr %4, align 4
  ret i32 %72
}