; Function Attrs: nounwind uwtable
define hidden range(i32 -29440, 1) i32 @mbedtls_ssl_tls13_read_public_xxdhe_share(ptr noundef %0, ptr noundef readonly captures(none) %1, i64 noundef %2) local_unnamed_addr #0 {
  %4 = getelementptr inbounds nuw i8, ptr %0, i64 112
  %5 = load ptr, ptr %4, align 8, !tbaa !23
  %6 = icmp ugt i64 %2, 1
  br i1 %6, label %8, label %7

7:                                                ; preds = %3
  tail call void (ptr, i32, ptr, i32, ptr, ...) @mbedtls_debug_print_msg(ptr noundef nonnull %0, i32 noundef 1, ptr noundef nonnull @.str, i32 noundef 1474, ptr noundef nonnull @.str.4, ptr noundef nonnull @__func__.mbedtls_ssl_tls13_read_public_xxdhe_share) #8
  tail call void @mbedtls_ssl_pend_fatal_alert(ptr noundef nonnull %0, i8 noundef zeroext 50, i32 noundef -29440) #8
  br label %20

8:                                                ; preds = %3
  %.0.copyload.i = load i16, ptr %1, align 1
  %9 = tail call i16 @llvm.bswap.i16(i16 %.0.copyload.i)
  %10 = zext i16 %9 to i32
  %11 = getelementptr inbounds nuw i8, ptr %1, i64 2
  %12 = zext i16 %9 to i64
  %gepdiff = add nsw i64 %2, -2
  %.not = icmp ult i64 %gepdiff, %12
  br i1 %.not, label %13, label %14

13:                                               ; preds = %8
  tail call void (ptr, i32, ptr, i32, ptr, ...) @mbedtls_debug_print_msg(ptr noundef nonnull %0, i32 noundef 1, ptr noundef nonnull @.str, i32 noundef 1479, ptr noundef nonnull @.str.4, ptr noundef nonnull @__func__.mbedtls_ssl_tls13_read_public_xxdhe_share) #8
  tail call void @mbedtls_ssl_pend_fatal_alert(ptr noundef nonnull %0, i8 noundef zeroext 50, i32 noundef -29440) #8
  br label %20

14:                                               ; preds = %8
  %15 = icmp ugt i16 %9, 1024
  br i1 %15, label %16, label %17

16:                                               ; preds = %14
  tail call void (ptr, i32, ptr, i32, ptr, ...) @mbedtls_debug_print_msg(ptr noundef nonnull %0, i32 noundef 1, ptr noundef nonnull @.str, i32 noundef 1485, ptr noundef nonnull @.str.30, i32 noundef %10, i64 noundef 1024) #8
  br label %20

17:                                               ; preds = %14
  %18 = getelementptr inbounds nuw i8, ptr %5, i64 637
  tail call void @llvm.memcpy.p0.p0.i64(ptr nonnull align 1 %18, ptr nonnull align 1 %11, i64 %12, i1 false)
  %19 = getelementptr inbounds nuw i8, ptr %5, i64 1664
  store i64 %12, ptr %19, align 8, !tbaa !100
  br label %20

20:                                               ; preds = %13, %16, %17, %7
  %.0 = phi i32 [ -29440, %7 ], [ -29440, %13 ], [ -28160, %16 ], [ 0, %17 ]
  ret i32 %.0
}